; Function Attrs: nounwind uwtable
define ptr @l_Lean_IR_ToIR_findDecl(ptr noundef %0, ptr readnone captures(none) %1, ptr readnone captures(none) %2, ptr noundef %3, ptr noundef %4) local_unnamed_addr #1 {
  %6 = tail call ptr @lean_st_ref_get(ptr noundef %3, ptr noundef %4) #6
  %.val = load i32, ptr %6, align 4, !tbaa !8
  %7 = icmp eq i32 %.val, 1
  %8 = getelementptr inbounds nuw i8, ptr %6, i64 8
  %9 = load ptr, ptr %8, align 8, !tbaa !12
  br i1 %7, label %10, label %31

10:                                               ; preds = %5
  %11 = getelementptr inbounds nuw i8, ptr %9, i64 8
  %12 = load ptr, ptr %11, align 8, !tbaa !12
  %13 = ptrtoint ptr %12 to i64
  %14 = and i64 %13, 1
  %.not50 = icmp eq i64 %14, 0
  br i1 %.not50, label %15, label %lean_inc.exit30

15:                                               ; preds = %10
  %.val.i = load i32, ptr %12, align 4, !tbaa !8
  %16 = icmp sgt i32 %.val.i, 0
  br i1 %16, label %17, label %19, !prof !11

17:                                               ; preds = %15
  %18 = add nuw i32 %.val.i, 1
  store i32 %18, ptr %12, align 4, !tbaa !8
  br label %lean_inc.exit30

19:                                               ; preds = %15
  %.not.i37 = icmp eq i32 %.val.i, 0
  br i1 %.not.i37, label %lean_inc.exit30, label %20

20:                                               ; preds = %19
  tail call void @lean_inc_ref_cold(ptr noundef nonnull %12) #6
  br label %lean_inc.exit30

lean_inc.exit30:                                  ; preds = %20, %19, %17, %10
  %21 = ptrtoint ptr %9 to i64
  %22 = and i64 %21, 1
  %.not51 = icmp eq i64 %22, 0
  br i1 %.not51, label %23, label %lean_dec.exit32

23:                                               ; preds = %lean_inc.exit30
  %24 = load i32, ptr %9, align 4, !tbaa !8
  %25 = icmp sgt i32 %24, 1
  br i1 %25, label %26, label %28, !prof !11

26:                                               ; preds = %23
  %27 = add nsw i32 %24, -1
  store i32 %27, ptr %9, align 4, !tbaa !8
  br label %lean_dec.exit32

28:                                               ; preds = %23
  %.not.i = icmp eq i32 %24, 0
  br i1 %.not.i, label %lean_dec.exit32, label %29

29:                                               ; preds = %28
  tail call void @lean_dec_ref_cold(ptr noundef nonnull %9) #6
  br label %lean_dec.exit32

lean_dec.exit32:                                  ; preds = %29, %28, %26, %lean_inc.exit30
  %30 = tail call ptr @lean_ir_find_env_decl(ptr noundef %12, ptr noundef %0) #6
  store ptr %30, ptr %8, align 8, !tbaa !12
  br label %83

31:                                               ; preds = %5
  %32 = getelementptr inbounds nuw i8, ptr %6, i64 16
  %33 = load ptr, ptr %32, align 8, !tbaa !12
  %34 = ptrtoint ptr %33 to i64
  %35 = and i64 %34, 1
  %.not = icmp eq i64 %35, 0
  br i1 %.not, label %36, label %lean_inc.exit29

36:                                               ; preds = %31
  %.val.i38 = load i32, ptr %33, align 4, !tbaa !8
  %37 = icmp sgt i32 %.val.i38, 0
  br i1 %37, label %38, label %40, !prof !11

38:                                               ; preds = %36
  %39 = add nuw i32 %.val.i38, 1
  store i32 %39, ptr %33, align 4, !tbaa !8
  br label %lean_inc.exit29

40:                                               ; preds = %36
  %.not.i39 = icmp eq i32 %.val.i38, 0
  br i1 %.not.i39, label %lean_inc.exit29, label %41

41:                                               ; preds = %40
  tail call void @lean_inc_ref_cold(ptr noundef nonnull %33) #6
  br label %lean_inc.exit29

lean_inc.exit29:                                  ; preds = %41, %40, %38, %31
  %42 = ptrtoint ptr %9 to i64
  %43 = and i64 %42, 1
  %.not47 = icmp eq i64 %43, 0
  br i1 %.not47, label %44, label %lean_inc.exit28

44:                                               ; preds = %lean_inc.exit29
  %.val.i41 = load i32, ptr %9, align 4, !tbaa !8
  %45 = icmp sgt i32 %.val.i41, 0
  br i1 %45, label %46, label %48, !prof !11

46:                                               ; preds = %44
  %47 = add nuw i32 %.val.i41, 1
  store i32 %47, ptr %9, align 4, !tbaa !8
  br label %lean_inc.exit28

48:                                               ; preds = %44
  %.not.i42 = icmp eq i32 %.val.i41, 0
  br i1 %.not.i42, label %lean_inc.exit28, label %49

49:                                               ; preds = %48
  tail call void @lean_inc_ref_cold(ptr noundef nonnull %9) #6
  br label %lean_inc.exit28

lean_inc.exit28:                                  ; preds = %49, %48, %46, %lean_inc.exit29
  %50 = ptrtoint ptr %6 to i64
  %51 = and i64 %50, 1
  %.not48 = icmp eq i64 %51, 0
  br i1 %.not48, label %52, label %lean_dec.exit31

52:                                               ; preds = %lean_inc.exit28
  %53 = load i32, ptr %6, align 4, !tbaa !8
  %54 = icmp sgt i32 %53, 1
  br i1 %54, label %55, label %57, !prof !11

55:                                               ; preds = %52
  %56 = add nsw i32 %53, -1
  store i32 %56, ptr %6, align 4, !tbaa !8
  br label %lean_dec.exit31

57:                                               ; preds = %52
  %.not.i33 = icmp eq i32 %53, 0
  br i1 %.not.i33, label %lean_dec.exit31, label %58

58:                                               ; preds = %57
  tail call void @lean_dec_ref_cold(ptr noundef nonnull %6) #6
  br label %lean_dec.exit31

lean_dec.exit31:                                  ; preds = %58, %57, %55, %lean_inc.exit28
  %59 = getelementptr inbounds nuw i8, ptr %9, i64 8
  %60 = load ptr, ptr %59, align 8, !tbaa !12
  %61 = ptrtoint ptr %60 to i64
  %62 = and i64 %61, 1
  %.not49 = icmp eq i64 %62, 0
  br i1 %.not49, label %63, label %lean_inc.exit

63:                                               ; preds = %lean_dec.exit31
  %.val.i44 = load i32, ptr %60, align 4, !tbaa !8
  %64 = icmp sgt i32 %.val.i44, 0
  br i1 %64, label %65, label %67, !prof !11

65:                                               ; preds = %63
  %66 = add nuw i32 %.val.i44, 1
  store i32 %66, ptr %60, align 4, !tbaa !8
  br label %lean_inc.exit

67:                                               ; preds = %63
  %.not.i45 = icmp eq i32 %.val.i44, 0
  br i1 %.not.i45, label %lean_inc.exit, label %68

68:                                               ; preds = %67
  tail call void @lean_inc_ref_cold(ptr noundef nonnull %60) #6
  br label %lean_inc.exit

lean_inc.exit:                                    ; preds = %68, %67, %65, %lean_dec.exit31
  br i1 %.not47, label %69, label %lean_dec.exit

69:                                               ; preds = %lean_inc.exit
  %70 = load i32, ptr %9, align 4, !tbaa !8
  %71 = icmp sgt i32 %70, 1
  br i1 %71, label %72, label %74, !prof !11

72:                                               ; preds = %69
  %73 = add nsw i32 %70, -1
  store i32 %73, ptr %9, align 4, !tbaa !8
  br label %lean_dec.exit

74:                                               ; preds = %69
  %.not.i35 = icmp eq i32 %70, 0
  br i1 %.not.i35, label %lean_dec.exit, label %75

75:                                               ; preds = %74
  tail call void @lean_dec_ref_cold(ptr noundef nonnull %9) #6
  br label %lean_dec.exit

lean_dec.exit:                                    ; preds = %75, %74, %72, %lean_inc.exit
  %76 = tail call ptr @lean_ir_find_env_decl(ptr noundef %60, ptr noundef %0) #6
  tail call void @lean_inc_heartbeat() #6
  %77 = tail call noalias ptr @mi_malloc_small(i64 noundef 24) #6
  %78 = icmp eq ptr %77, null
  br i1 %78, label %79, label %lean_alloc_ctor.exit

79:                                               ; preds = %lean_dec.exit
  tail call void @lean_internal_panic_out_of_memory() #7
  unreachable

lean_alloc_ctor.exit:                             ; preds = %lean_dec.exit
  %80 = getelementptr inbounds nuw i8, ptr %77, i64 4
  store i32 1, ptr %77, align 4, !tbaa !8
  store i32 131096, ptr %80, align 4
  %81 = getelementptr inbounds nuw i8, ptr %77, i64 8
  store ptr %76, ptr %81, align 8, !tbaa !12
  %82 = getelementptr inbounds nuw i8, ptr %77, i64 16
  store ptr %33, ptr %82, align 8, !tbaa !12
  br label %83

83:                                               ; preds = %lean_alloc_ctor.exit, %lean_dec.exit32
  %.0 = phi ptr [ %6, %lean_dec.exit32 ], [ %77, %lean_alloc_ctor.exit ]
  ret ptr %.0
}